target datalayout = "e-m:e-p270:32:32-p271:32:32-p272:64:64-i64:64-i128:128-f80:128-n8:16:32:64-S128"
target triple = "x86_64-pc-linux-gnu"

@.str.1 = private unnamed_addr constant [14 x i8] c"tsearchcmds.c\00", align 1
@.str.31 = private unnamed_addr constant [50 x i8] c"unrecognized attribute for text search parser: %d\00", align 1
@__func__.get_ts_parser_func = private unnamed_addr constant [19 x i8] c"get_ts_parser_func\00", align 1
@.str.32 = private unnamed_addr constant [34 x i8] c"function %s should return type %s\00", align 1

; Function Attrs: inlinehint nounwind uwtable
define internal i64 @ObjectIdGetDatum(i32 noundef %0) #5 {
  %2 = alloca i32, align 4
  store i32 %0, ptr %2, align 4
  %3 = load i32, ptr %2, align 4
  %4 = zext i32 %3 to i64
  ret i64 %4
}

; Function Attrs: nounwind uwtable
define internal i64 @get_ts_parser_func(ptr noundef %0, i32 noundef %1) #0 {
  %3 = alloca ptr, align 8
  %4 = alloca i32, align 4
  %5 = alloca ptr, align 8
  %6 = alloca [3 x i32], align 4
  %7 = alloca i32, align 4
  %8 = alloca i32, align 4
  %9 = alloca i32, align 4
  store ptr %0, ptr %3, align 8
  store i32 %1, ptr %4, align 4
  call void @llvm.lifetime.start.p0(i64 8, ptr %5) #10
  %10 = load ptr, ptr %3, align 8
  %11 = call ptr @defGetQualifiedName(ptr noundef %10)
  store ptr %11, ptr %5, align 8
  call void @llvm.lifetime.start.p0(i64 12, ptr %6) #10
  call void @llvm.lifetime.start.p0(i64 4, ptr %7) #10
  call void @llvm.lifetime.start.p0(i64 4, ptr %8) #10
  call void @llvm.lifetime.start.p0(i64 4, ptr %9) #10
  store i32 2281, ptr %7, align 4
  %12 = getelementptr inbounds [3 x i32], ptr %6, i64 0, i64 0
  store i32 2281, ptr %12, align 4
  %13 = load i32, ptr %4, align 4
  switch i32 %13, label %24 [
    i32 4, label %14
    i32 5, label %16
    i32 6, label %19
    i32 7, label %20
    i32 8, label %23
  ]

14:                                               ; preds = %2
  store i32 2, ptr %8, align 4
  %15 = getelementptr inbounds [3 x i32], ptr %6, i64 0, i64 1
  store i32 23, ptr %15, align 4
  br label %36

16:                                               ; preds = %2
  store i32 3, ptr %8, align 4
  %17 = getelementptr inbounds [3 x i32], ptr %6, i64 0, i64 1
  store i32 2281, ptr %17, align 4
  %18 = getelementptr inbounds [3 x i32], ptr %6, i64 0, i64 2
  store i32 2281, ptr %18, align 4
  br label %36

19:                                               ; preds = %2
  store i32 1, ptr %8, align 4
  store i32 2278, ptr %7, align 4
  br label %36

20:                                               ; preds = %2
  store i32 3, ptr %8, align 4
  %21 = getelementptr inbounds [3 x i32], ptr %6, i64 0, i64 1
  store i32 2281, ptr %21, align 4
  %22 = getelementptr inbounds [3 x i32], ptr %6, i64 0, i64 2
  store i32 3615, ptr %22, align 4
  br label %36

23:                                               ; preds = %2
  store i32 1, ptr %8, align 4
  br label %36

24:                                               ; preds = %2
  br label %25

25:                                               ; preds = %24
  br i1 true, label %26, label %28

26:                                               ; preds = %25
  %27 = call zeroext i1 @errstart_cold(i32 noundef 21, ptr noundef null) #11
  br i1 %27, label %30, label %33

28:                                               ; preds = %25
  %29 = call zeroext i1 @errstart(i32 noundef 21, ptr noundef null)
  br i1 %29, label %30, label %33

30:                                               ; preds = %28, %26
  %31 = load i32, ptr %4, align 4
  %32 = call i32 (ptr, ...) @errmsg_internal(ptr noundef @.str.31, i32 noundef %31)
  call void @errfinish(ptr noundef @.str.1, i32 noundef 116, ptr noundef @__func__.get_ts_parser_func)
  br label %33

33:                                               ; preds = %30, %28, %26
  unreachable

34:                                               ; No predecessors!
  br label %35

35:                                               ; preds = %34
  store i32 0, ptr %8, align 4
  br label %36

36:                                               ; preds = %35, %23, %20, %19, %16, %14
  %37 = load ptr, ptr %5, align 8
  %38 = load i32, ptr %8, align 4
  %39 = getelementptr inbounds [3 x i32], ptr %6, i64 0, i64 0
  %40 = call i32 @LookupFuncName(ptr noundef %37, i32 noundef %38, ptr noundef %39, i1 noundef zeroext false)
  store i32 %40, ptr %9, align 4
  %41 = load i32, ptr %9, align 4
  %42 = call i32 @get_func_rettype(i32 noundef %41)
  %43 = load i32, ptr %7, align 4
  %44 = icmp ne i32 %42, %43
  br i1 %44, label %45, label %63

45:                                               ; preds = %36
  br label %46

46:                                               ; preds = %45
  br i1 true, label %47, label %49

47:                                               ; preds = %46
  %48 = call zeroext i1 @errstart_cold(i32 noundef 21, ptr noundef null) #11
  br i1 %48, label %51, label %60

49:                                               ; preds = %46
  %50 = call zeroext i1 @errstart(i32 noundef 21, ptr noundef null)
  br i1 %50, label %51, label %60

51:                                               ; preds = %49, %47
  %52 = call i32 @errcode(i32 noundef 117833860)
  %53 = load ptr, ptr %5, align 8
  %54 = load i32, ptr %8, align 4
  %55 = getelementptr inbounds [3 x i32], ptr %6, i64 0, i64 0
  %56 = call ptr @func_signature_string(ptr noundef %53, i32 noundef %54, ptr noundef null, ptr noundef %55)
  %57 = load i32, ptr %7, align 4
  %58 = call ptr @format_type_be(i32 noundef %57)
  %59 = call i32 (ptr, ...) @errmsg(ptr noundef @.str.32, ptr noundef %56, ptr noundef %58)
  call void @errfinish(ptr noundef @.str.1, i32 noundef 126, ptr noundef @__func__.get_ts_parser_func)
  br label %60

60:                                               ; preds = %51, %49, %47
  unreachable

61:                                               ; No predecessors!
  br label %62

62:                                               ; preds = %61
  br label %63

63:                                               ; preds = %62, %36
  %64 = load i32, ptr %9, align 4
  %65 = call i64 @ObjectIdGetDatum(i32 noundef %64)
  call void @llvm.lifetime.end.p0(i64 4, ptr %9) #10
  call void @llvm.lifetime.end.p0(i64 4, ptr %8) #10
  call void @llvm.lifetime.end.p0(i64 4, ptr %7) #10
  call void @llvm.lifetime.end.p0(i64 12, ptr %6) #10
  call void @llvm.lifetime.end.p0(i64 8, ptr %5) #10
  ret i64 %65
}