; Function Attrs: nounwind uwtable
define internal fastcc range(i64 0, 4294967296) i64 @get_ts_parser_func(ptr noundef %0, i32 noundef range(i32 4, 9) %1) unnamed_addr #0 {
  %3 = alloca [3 x i32], align 4
  %4 = tail call ptr @defGetQualifiedName(ptr noundef %0) #10
  call void @llvm.lifetime.start.p0(i64 12, ptr nonnull %3) #10
  store i32 2281, ptr %3, align 4
  switch i32 %1, label %default.unreachable11 [
    i32 4, label %5
    i32 5, label %7
    i32 6, label %14
    i32 7, label %10
    i32 8, label %13
  ]

5:                                                ; preds = %2
  %6 = getelementptr inbounds nuw i8, ptr %3, i64 4
  store i32 23, ptr %6, align 4
  br label %14

7:                                                ; preds = %2
  %8 = getelementptr inbounds nuw i8, ptr %3, i64 4
  store i32 2281, ptr %8, align 4
  %9 = getelementptr inbounds nuw i8, ptr %3, i64 8
  store i32 2281, ptr %9, align 4
  br label %14

10:                                               ; preds = %2
  %11 = getelementptr inbounds nuw i8, ptr %3, i64 4
  store i32 2281, ptr %11, align 4
  %12 = getelementptr inbounds nuw i8, ptr %3, i64 8
  store i32 3615, ptr %12, align 4
  br label %14

13:                                               ; preds = %2
  br label %14

default.unreachable11:                            ; preds = %2
  unreachable

14:                                               ; preds = %2, %13, %10, %7, %5
  %.010 = phi i32 [ 1, %13 ], [ 3, %10 ], [ 3, %7 ], [ 2, %5 ], [ 1, %2 ]
  %.0 = phi i32 [ 2281, %13 ], [ 2281, %10 ], [ 2281, %7 ], [ 2281, %5 ], [ 2278, %2 ]
  %15 = call i32 @LookupFuncName(ptr noundef %4, i32 noundef %.010, ptr noundef nonnull %3, i1 noundef zeroext false) #10
  %16 = call i32 @get_func_rettype(i32 noundef %15) #10
  %.not = icmp eq i32 %16, %.0
  br i1 %.not, label %23, label %17

17:                                               ; preds = %14
  %18 = call zeroext i1 @errstart_cold(i32 noundef 21, ptr noundef null) #11
  call void @llvm.assume(i1 %18)
  %19 = call i32 @errcode(i32 noundef 117833860) #10
  %20 = call ptr @func_signature_string(ptr noundef %4, i32 noundef %.010, ptr noundef null, ptr noundef nonnull %3) #10
  %21 = call ptr @format_type_be(i32 noundef %.0) #10
  %22 = call i32 (ptr, ...) @errmsg(ptr noundef nonnull @.str.32, ptr noundef %20, ptr noundef %21) #10
  call void @errfinish(ptr noundef nonnull @.str.1, i32 noundef 126, ptr noundef nonnull @__func__.get_ts_parser_func) #10
  unreachable

23:                                               ; preds = %14
  %24 = zext i32 %15 to i64
  call void @llvm.lifetime.end.p0(i64 12, ptr nonnull %3) #10
  ret i64 %24
}